; Function Attrs: nounwind uwtable
define dso_local zeroext i8 @LFULogIncr(i8 noundef zeroext %0) local_unnamed_addr #0 {
  %2 = icmp eq i8 %0, -1
  br i1 %2, label %17, label %3

3:                                                ; preds = %1
  %4 = zext i8 %0 to i32
  %5 = tail call i32 @rand() #15
  %6 = sitofp i32 %5 to double
  %7 = fdiv double %6, 0x41DFFFFFFFC00000
  %8 = add nsw i32 %4, -5
  %9 = sitofp i32 %8 to double
  %10 = icmp ult i8 %0, 5
  %.08 = select i1 %10, double 0.000000e+00, double %9
  %11 = load i32, ptr getelementptr inbounds nuw (i8, ptr @server, i64 7548), align 4, !tbaa !64
  %12 = sitofp i32 %11 to double
  %13 = tail call double @llvm.fmuladd.f64(double %.08, double %12, double 1.000000e+00)
  %14 = fdiv double 1.000000e+00, %13
  %15 = fcmp olt double %7, %14
  %16 = zext i1 %15 to i8
  %.09 = add nuw i8 %0, %16
  br label %17

17:                                               ; preds = %1, %3
  %.0 = phi i8 [ %.09, %3 ], [ -1, %1 ]
  ret i8 %.0
}